; ModuleID = '24/331.c'
source_filename = "24/331.c"
target datalayout = "e-m:e-p270:32:32-p271:32:32-p272:64:64-i64:64-f80:128-n8:16:32:64-S128"
target triple = "x86_64-pc-linux-gnu"

@.str = private unnamed_addr constant [3 x i8] c"%c\00", align 1
@.str.1 = private unnamed_addr constant [2 x i8] c"\0A\00", align 1

; Function Attrs: noinline nounwind uwtable
define dso_local void @main() #0 {
  %1 = alloca [1000 x i8], align 16
  %2 = alloca [50 x [50 x i8]], align 16
  %3 = alloca i32, align 4
  %4 = alloca i32, align 4
  %5 = alloca [50 x i32], align 16
  %6 = alloca i32, align 4
  %7 = alloca i32, align 4
  %8 = alloca i32, align 4
  %9 = alloca i32, align 4
  %10 = alloca i32, align 4
  %11 = getelementptr inbounds [1000 x i8], [1000 x i8]* %1, i64 0, i64 0
  %12 = call i32 (i8*, ...) bitcast (i32 (...)* @gets to i32 (i8*, ...)*)(i8* %11)
  %13 = getelementptr inbounds [1000 x i8], [1000 x i8]* %1, i64 0, i64 0
  %14 = call i64 @strlen(i8* %13) #3
  %15 = trunc i64 %14 to i32
  store i32 %15, i32* %10, align 4
  store i32 0, i32* %4, align 4
  store i32 0, i32* %3, align 4
  br label %16

16:                                               ; preds = %23, %0
  %17 = load i32, i32* %3, align 4
  %18 = icmp slt i32 %17, 50
  br i1 %18, label %19, label %26

19:                                               ; preds = %16
  %20 = load i32, i32* %3, align 4
  %21 = sext i32 %20 to i64
  %22 = getelementptr inbounds [50 x i32], [50 x i32]* %5, i64 0, i64 %21
  store i32 0, i32* %22, align 4
  br label %23

23:                                               ; preds = %19
  %24 = load i32, i32* %3, align 4
  %25 = add nsw i32 %24, 1
  store i32 %25, i32* %3, align 4
  br label %16

26:                                               ; preds = %16
  store i32 0, i32* %3, align 4
  br label %27

27:                                               ; preds = %64, %26
  %28 = load i32, i32* %3, align 4
  %29 = load i32, i32* %10, align 4
  %30 = icmp slt i32 %28, %29
  br i1 %30, label %31, label %67

31:                                               ; preds = %27
  %32 = load i32, i32* %3, align 4
  %33 = sext i32 %32 to i64
  %34 = getelementptr inbounds [1000 x i8], [1000 x i8]* %1, i64 0, i64 %33
  %35 = load i8, i8* %34, align 1
  %36 = sext i8 %35 to i32
  %37 = icmp ne i32 %36, 32
  br i1 %37, label %38, label %60

38:                                               ; preds = %31
  %39 = load i32, i32* %3, align 4
  %40 = sext i32 %39 to i64
  %41 = getelementptr inbounds [1000 x i8], [1000 x i8]* %1, i64 0, i64 %40
  %42 = load i8, i8* %41, align 1
  %43 = load i32, i32* %4, align 4
  %44 = sext i32 %43 to i64
  %45 = getelementptr inbounds [50 x [50 x i8]], [50 x [50 x i8]]* %2, i64 0, i64 %44
  %46 = load i32, i32* %4, align 4
  %47 = sext i32 %46 to i64
  %48 = getelementptr inbounds [50 x i32], [50 x i32]* %5, i64 0, i64 %47
  %49 = load i32, i32* %48, align 4
  %50 = sext i32 %49 to i64
  %51 = getelementptr inbounds [50 x i8], [50 x i8]* %45, i64 0, i64 %50
  store i8 %42, i8* %51, align 1
  %52 = load i32, i32* %4, align 4
  %53 = sext i32 %52 to i64
  %54 = getelementptr inbounds [50 x i32], [50 x i32]* %5, i64 0, i64 %53
  %55 = load i32, i32* %54, align 4
  %56 = add nsw i32 %55, 1
  %57 = load i32, i32* %4, align 4
  %58 = sext i32 %57 to i64
  %59 = getelementptr inbounds [50 x i32], [50 x i32]* %5, i64 0, i64 %58
  store i32 %56, i32* %59, align 4
  br label %63

60:                                               ; preds = %31
  %61 = load i32, i32* %4, align 4
  %62 = add nsw i32 %61, 1
  store i32 %62, i32* %4, align 4
  br label %63

63:                                               ; preds = %60, %38
  br label %64

64:                                               ; preds = %63
  %65 = load i32, i32* %3, align 4
  %66 = add nsw i32 %65, 1
  store i32 %66, i32* %3, align 4
  br label %27

67:                                               ; preds = %27
  store i32 0, i32* %8, align 4
  store i32 50, i32* %9, align 4
  store i32 0, i32* %3, align 4
  br label %68

68:                                               ; preds = %99, %67
  %69 = load i32, i32* %3, align 4
  %70 = load i32, i32* %4, align 4
  %71 = icmp sle i32 %69, %70
  br i1 %71, label %72, label %102

72:                                               ; preds = %68
  %73 = load i32, i32* %3, align 4
  %74 = sext i32 %73 to i64
  %75 = getelementptr inbounds [50 x i32], [50 x i32]* %5, i64 0, i64 %74
  %76 = load i32, i32* %75, align 4
  %77 = load i32, i32* %9, align 4
  %78 = icmp slt i32 %76, %77
  br i1 %78, label %79, label %85

79:                                               ; preds = %72
  %80 = load i32, i32* %3, align 4
  %81 = sext i32 %80 to i64
  %82 = getelementptr inbounds [50 x i32], [50 x i32]* %5, i64 0, i64 %81
  %83 = load i32, i32* %82, align 4
  store i32 %83, i32* %9, align 4
  %84 = load i32, i32* %3, align 4
  store i32 %84, i32* %7, align 4
  br label %85

85:                                               ; preds = %79, %72
  %86 = load i32, i32* %3, align 4
  %87 = sext i32 %86 to i64
  %88 = getelementptr inbounds [50 x i32], [50 x i32]* %5, i64 0, i64 %87
  %89 = load i32, i32* %88, align 4
  %90 = load i32, i32* %8, align 4
  %91 = icmp sgt i32 %89, %90
  br i1 %91, label %92, label %98

92:                                               ; preds = %85
  %93 = load i32, i32* %3, align 4
  %94 = sext i32 %93 to i64
  %95 = getelementptr inbounds [50 x i32], [50 x i32]* %5, i64 0, i64 %94
  %96 = load i32, i32* %95, align 4
  store i32 %96, i32* %8, align 4
  %97 = load i32, i32* %3, align 4
  store i32 %97, i32* %6, align 4
  br label %98

98:                                               ; preds = %92, %85
  br label %99

99:                                               ; preds = %98
  %100 = load i32, i32* %3, align 4
  %101 = add nsw i32 %100, 1
  store i32 %101, i32* %3, align 4
  br label %68

102:                                              ; preds = %68
  store i32 0, i32* %3, align 4
  br label %103

103:                                              ; preds = %117, %102
  %104 = load i32, i32* %3, align 4
  %105 = load i32, i32* %8, align 4
  %106 = icmp slt i32 %104, %105
  br i1 %106, label %107, label %120

107:                                              ; preds = %103
  %108 = load i32, i32* %6, align 4
  %109 = sext i32 %108 to i64
  %110 = getelementptr inbounds [50 x [50 x i8]], [50 x [50 x i8]]* %2, i64 0, i64 %109
  %111 = load i32, i32* %3, align 4
  %112 = sext i32 %111 to i64
  %113 = getelementptr inbounds [50 x i8], [50 x i8]* %110, i64 0, i64 %112
  %114 = load i8, i8* %113, align 1
  %115 = sext i8 %114 to i32
  %116 = call i32 (i8*, ...) @printf(i8* getelementptr inbounds ([3 x i8], [3 x i8]* @.str, i64 0, i64 0), i32 %115)
  br label %117

117:                                              ; preds = %107
  %118 = load i32, i32* %3, align 4
  %119 = add nsw i32 %118, 1
  store i32 %119, i32* %3, align 4
  br label %103

120:                                              ; preds = %103
  %121 = call i32 (i8*, ...) @printf(i8* getelementptr inbounds ([2 x i8], [2 x i8]* @.str.1, i64 0, i64 0))
  store i32 0, i32* %3, align 4
  br label %122

122:                                              ; preds = %136, %120
  %123 = load i32, i32* %3, align 4
  %124 = load i32, i32* %9, align 4
  %125 = icmp slt i32 %123, %124
  br i1 %125, label %126, label %139

126:                                              ; preds = %122
  %127 = load i32, i32* %7, align 4
  %128 = sext i32 %127 to i64
  %129 = getelementptr inbounds [50 x [50 x i8]], [50 x [50 x i8]]* %2, i64 0, i64 %128
  %130 = load i32, i32* %3, align 4
  %131 = sext i32 %130 to i64
  %132 = getelementptr inbounds [50 x i8], [50 x i8]* %129, i64 0, i64 %131
  %133 = load i8, i8* %132, align 1
  %134 = sext i8 %133 to i32
  %135 = call i32 (i8*, ...) @printf(i8* getelementptr inbounds ([3 x i8], [3 x i8]* @.str, i64 0, i64 0), i32 %134)
  br label %136

136:                                              ; preds = %126
  %137 = load i32, i32* %3, align 4
  %138 = add nsw i32 %137, 1
  store i32 %138, i32* %3, align 4
  br label %122

139:                                              ; preds = %122
  %140 = call i32 (i8*, ...) @printf(i8* getelementptr inbounds ([2 x i8], [2 x i8]* @.str.1, i64 0, i64 0))
  ret void
}

declare dso_local i32 @gets(...) #1

; Function Attrs: nounwind readonly
declare dso_local i64 @strlen(i8*) #2

declare dso_local i32 @printf(i8*, ...) #1


!llvm.module.flags = !{!0}
!llvm.ident = !{!1}

!0 = !{i32 1, !"wchar_size", i32 4}
!1 = !{!"clang version 10.0.0-4ubuntu1 "}
